target datalayout = "e-m:e-p270:32:32-p271:32:32-p272:64:64-i64:64-i128:128-f80:128-n8:16:32:64-S128"
target triple = "x86_64-unknown-linux-gnu"

module asm ".section \22.export_symbol\22,\22a\22 ; __export_symbol___virt_addr_valid: ; .asciz \22\22 ; .asciz \22\22 ; .balign 8 ; .quad __virt_addr_valid ; .previous"

%struct.cpuinfo_x86 = type { i8, i8, i8, i8, i32, [5 x i32], i8, i8, i8, i32, i32, %union.anon, [16 x i8], [64 x i8], %struct.cpuinfo_topology, i32, i32, i32, i32, i32, i32, i64, i64, i16, i16, i16, i16, i8, i32, i8, i8 }
%union.anon = type { i64, [88 x i8] }
%struct.cpuinfo_topology = type { i32, i32, i32, i32, i32, i32, i32, i32, i32, i32 }
%struct.pcpu_hot = type { %union.anon.0 }
%union.anon.0 = type { %struct.anon, [16 x i8] }
%struct.anon = type { ptr, i32, i32, i64, i64, ptr, i16, i8 }
%struct.static_call_key = type { ptr, %union.anon.1 }
%union.anon.1 = type { i64 }
%struct.mem_section = type { i64, ptr }

@phys_base = external dso_local local_unnamed_addr global i64, align 8
@page_offset_base = external dso_local local_unnamed_addr global i64, align 8
@__UNIQUE_ID___addressable___virt_addr_valid323 = internal global ptr @__virt_addr_valid, section ".discard.addressable", align 8
@boot_cpu_data = external dso_local global %struct.cpuinfo_x86, align 8
@mem_section = external dso_local local_unnamed_addr global ptr, align 8
@pcpu_hot = external dso_local global %struct.pcpu_hot, section ".data..percpu..shared_aligned", align 64
@rcu_read_unlock_sched.__UNIQUE_ID___addressable___SCK__preempt_schedule92 = internal global ptr @__SCK__preempt_schedule, section ".discard.addressable", align 8
@__SCK__preempt_schedule = external dso_local global %struct.static_call_key, align 8
@llvm.compiler.used = appending global [2 x ptr] [ptr @__UNIQUE_ID___addressable___virt_addr_valid323, ptr @rcu_read_unlock_sched.__UNIQUE_ID___addressable___SCK__preempt_schedule92], section "llvm.metadata"

; Function Attrs: fn_ret_thunk_extern nounwind null_pointer_is_valid
define dso_local zeroext i1 @__virt_addr_valid(i64 noundef %0) #0 align 16 {
  %2 = add i64 %0, 2147483648
  %3 = icmp ugt i64 %0, -2147483649
  br i1 %3, label %4, label %8, !prof !6

4:                                                ; preds = %1
  %5 = load i64, ptr @phys_base, align 8
  %6 = add i64 %5, %2
  %7 = icmp ugt i64 %2, 1073741823
  br i1 %7, label %80, label %17

8:                                                ; preds = %1
  %9 = load i64, ptr @page_offset_base, align 8
  %10 = sub i64 %0, %9
  %11 = icmp ugt i64 %10, %2
  br i1 %11, label %80, label %12

12:                                               ; preds = %8
  %13 = load i8, ptr getelementptr inbounds (%struct.cpuinfo_x86, ptr @boot_cpu_data, i64 0, i32 7), align 1
  %14 = zext nneg i8 %13 to i64
  %15 = lshr i64 %10, %14
  %16 = icmp eq i64 %15, 0
  br i1 %16, label %17, label %80

17:                                               ; preds = %12, %4
  %18 = phi i64 [ %6, %4 ], [ %10, %12 ]
  %19 = lshr i64 %18, 21
  %20 = lshr i64 %18, 27
  callbr void asm sideeffect "# ALT: oldinstr2\0A661:\0A\09jmp 6f\0A662:\0A# ALT: padding2\0A.skip -((((6651f-6641f) ^ (((6651f-6641f) ^ (6652f-6642f)) & -(-((6651f-6641f) < (6652f-6642f))))) - (662b-661b)) > 0) * (((6651f-6641f) ^ (((6651f-6641f) ^ (6652f-6642f)) & -(-((6651f-6641f) < (6652f-6642f))))) - (662b-661b)), 0x90\0A663:\0A.pushsection .altinstructions,\22a\22\0A .long 661b - .\0A .long 6641f - .\0A .4byte ( 3*32+21)\0A .byte 663b-661b\0A .byte 6651f-6641f\0A .long 661b - .\0A .long 6642f - .\0A .4byte ${0:P}\0A .byte 663b-661b\0A .byte 6652f-6642f\0A.popsection\0A.pushsection .altinstr_replacement, \22ax\22\0A# ALT: replacement 1\0A6641:\0A\09jmp ${4:l}\0A6651:\0A# ALT: replacement 2\0A6642:\0A\09\0A6652:\0A.popsection\0A.pushsection .altinstr_aux,\22ax\22\0A6:\0A testb $1,${2:P} (% rip)\0A jnz ${3:l}\0A jmp ${4:l}\0A.popsection\0A", "i,i,i,!i,!i,~{dirflag},~{fpsr},~{flags}"(i16 528, i32 1, ptr nonnull getelementptr inbounds (%struct.cpuinfo_x86, ptr @boot_cpu_data, i64 0, i32 11, i32 1, i64 58)) #4
          to label %22 [label %22, label %21], !srcloc !7

21:                                               ; preds = %17
  br label %22

22:                                               ; preds = %21, %17, %17
  %23 = phi i64 [ 524288, %21 ], [ 33554432, %17 ], [ 33554432, %17 ]
  %24 = icmp ult i64 %20, %23
  br i1 %24, label %25, label %77

25:                                               ; preds = %22
  %26 = lshr i64 %18, 35
  callbr void asm sideeffect "# ALT: oldinstr2\0A661:\0A\09jmp 6f\0A662:\0A# ALT: padding2\0A.skip -((((6651f-6641f) ^ (((6651f-6641f) ^ (6652f-6642f)) & -(-((6651f-6641f) < (6652f-6642f))))) - (662b-661b)) > 0) * (((6651f-6641f) ^ (((6651f-6641f) ^ (6652f-6642f)) & -(-((6651f-6641f) < (6652f-6642f))))) - (662b-661b)), 0x90\0A663:\0A.pushsection .altinstructions,\22a\22\0A .long 661b - .\0A .long 6641f - .\0A .4byte ( 3*32+21)\0A .byte 663b-661b\0A .byte 6651f-6641f\0A .long 661b - .\0A .long 6642f - .\0A .4byte ${0:P}\0A .byte 663b-661b\0A .byte 6652f-6642f\0A.popsection\0A.pushsection .altinstr_replacement, \22ax\22\0A# ALT: replacement 1\0A6641:\0A\09jmp ${4:l}\0A6651:\0A# ALT: replacement 2\0A6642:\0A\09\0A6652:\0A.popsection\0A.pushsection .altinstr_aux,\22ax\22\0A6:\0A testb $1,${2:P} (% rip)\0A jnz ${3:l}\0A jmp ${4:l}\0A.popsection\0A", "i,i,i,!i,!i,~{dirflag},~{fpsr},~{flags}"(i16 528, i32 1, ptr nonnull getelementptr inbounds (%struct.cpuinfo_x86, ptr @boot_cpu_data, i64 0, i32 11, i32 1, i64 58)) #4
          to label %28 [label %28, label %27], !srcloc !7

27:                                               ; preds = %25
  br label %28

28:                                               ; preds = %27, %25, %25
  %29 = phi i64 [ 2048, %27 ], [ 131072, %25 ], [ 131072, %25 ]
  %30 = icmp ult i64 %26, %29
  br i1 %30, label %31, label %41, !prof !8

31:                                               ; preds = %28
  %32 = load ptr, ptr @mem_section, align 8
  %33 = icmp eq ptr %32, null
  br i1 %33, label %41, label %34

34:                                               ; preds = %31
  %35 = getelementptr ptr, ptr %32, i64 %26
  %36 = load ptr, ptr %35, align 8
  %37 = icmp eq ptr %36, null
  br i1 %37, label %41, label %38

38:                                               ; preds = %34
  %39 = and i64 %20, 255
  %40 = getelementptr %struct.mem_section, ptr %36, i64 %39
  br label %41

41:                                               ; preds = %38, %34, %31, %28
  %42 = phi ptr [ %40, %38 ], [ null, %28 ], [ null, %34 ], [ null, %31 ]
  tail call void asm "incl %gs:$0", "=*m,*m,~{dirflag},~{fpsr},~{flags}"(ptr nonnull elementtype(i32) getelementptr inbounds (%struct.pcpu_hot, ptr @pcpu_hot, i64 0, i32 0, i32 0, i32 1), ptr nonnull elementtype(i32) getelementptr inbounds (%struct.pcpu_hot, ptr @pcpu_hot, i64 0, i32 0, i32 0, i32 1)) #4, !srcloc !9
  tail call void asm sideeffect "", "~{memory},~{dirflag},~{fpsr},~{flags}"() #4, !srcloc !10
  %43 = icmp eq ptr %42, null
  br i1 %43, label %48, label %44

44:                                               ; preds = %41
  %45 = load i64, ptr %42, align 8
  %46 = and i64 %45, 2
  %47 = icmp eq i64 %46, 0
  br i1 %47, label %48, label %55

48:                                               ; preds = %44, %41
  tail call void asm sideeffect "", "~{memory},~{dirflag},~{fpsr},~{flags}"() #4, !srcloc !11
  %49 = tail call i8 asm sideeffect "decl %gs:$0\0A\09/* output condition code e*/\0A", "=*m,={@cce},*m,~{memory},~{dirflag},~{fpsr},~{flags}"(ptr nonnull elementtype(i32) getelementptr inbounds (%struct.pcpu_hot, ptr @pcpu_hot, i64 0, i32 0, i32 0, i32 1), ptr nonnull elementtype(i32) getelementptr inbounds (%struct.pcpu_hot, ptr @pcpu_hot, i64 0, i32 0, i32 0, i32 1)) #4, !srcloc !12
  %50 = icmp ult i8 %49, 2
  tail call void @llvm.assume(i1 %50)
  %51 = icmp eq i8 %49, 0
  br i1 %51, label %77, label %52, !prof !8

52:                                               ; preds = %48
  %53 = tail call i64 @llvm.read_register.i64(metadata !0)
  %54 = tail call i64 asm sideeffect "call __SCT__preempt_schedule", "={rsp},{rsp},~{dirflag},~{fpsr},~{flags}"(i64 %53) #4, !srcloc !13
  br label %74

55:                                               ; preds = %44
  %56 = and i64 %45, 8
  %57 = icmp eq i64 %56, 0
  br i1 %57, label %58, label %66

58:                                               ; preds = %55
  %59 = getelementptr inbounds i8, ptr %42, i64 8
  %60 = load volatile ptr, ptr %59, align 8
  %61 = getelementptr inbounds i8, ptr %60, i64 16
  %62 = and i64 %19, 63
  %63 = tail call i8 asm sideeffect " btq  $2,$1\0A\09/* output condition code c*/\0A", "={@ccc},*m,Ir,~{memory},~{dirflag},~{fpsr},~{flags}"(ptr elementtype(i64) %61, i64 %62) #4, !srcloc !14
  %64 = icmp ult i8 %63, 2
  tail call void @llvm.assume(i1 %64)
  %65 = zext nneg i8 %63 to i32
  br label %66

66:                                               ; preds = %58, %55
  %67 = phi i32 [ 1, %55 ], [ %65, %58 ]
  tail call void asm sideeffect "", "~{memory},~{dirflag},~{fpsr},~{flags}"() #4, !srcloc !11
  %68 = tail call i8 asm sideeffect "decl %gs:$0\0A\09/* output condition code e*/\0A", "=*m,={@cce},*m,~{memory},~{dirflag},~{fpsr},~{flags}"(ptr nonnull elementtype(i32) getelementptr inbounds (%struct.pcpu_hot, ptr @pcpu_hot, i64 0, i32 0, i32 0, i32 1), ptr nonnull elementtype(i32) getelementptr inbounds (%struct.pcpu_hot, ptr @pcpu_hot, i64 0, i32 0, i32 0, i32 1)) #4, !srcloc !12
  %69 = icmp ult i8 %68, 2
  tail call void @llvm.assume(i1 %69)
  %70 = icmp eq i8 %68, 0
  br i1 %70, label %77, label %71, !prof !8

71:                                               ; preds = %66
  %72 = tail call i64 @llvm.read_register.i64(metadata !0)
  %73 = tail call i64 asm sideeffect "call __SCT__preempt_schedule", "={rsp},{rsp},~{dirflag},~{fpsr},~{flags}"(i64 %72) #4, !srcloc !13
  br label %74

74:                                               ; preds = %71, %52
  %75 = phi i64 [ %54, %52 ], [ %73, %71 ]
  %76 = phi i32 [ 0, %52 ], [ %67, %71 ]
  tail call void @llvm.write_register.i64(metadata !0, i64 %75)
  br label %77

77:                                               ; preds = %74, %66, %48, %22
  %78 = phi i32 [ 0, %22 ], [ 0, %48 ], [ %67, %66 ], [ %76, %74 ]
  %79 = icmp ne i32 %78, 0
  br label %80

80:                                               ; preds = %77, %12, %8, %4
  %81 = phi i1 [ %79, %77 ], [ false, %4 ], [ false, %12 ], [ false, %8 ]
  ret i1 %81
}

; Function Attrs: nocallback nofree nosync nounwind willreturn memory(read)
declare i64 @llvm.read_register.i64(metadata) #1

; Function Attrs: nocallback nounwind
declare void @llvm.write_register.i64(metadata, i64) #2

; Function Attrs: nocallback nofree nosync nounwind willreturn memory(inaccessiblemem: write)
declare void @llvm.assume(i1 noundef) #3


!llvm.named.register.rsp = !{!0}
!llvm.module.flags = !{!1, !2, !3, !4, !5}

!0 = !{!"rsp"}
!1 = !{i32 1, !"wchar_size", i32 2}
!2 = !{i32 8, !"cf-protection-branch", i32 1}
!3 = !{i32 4, !"function_return_thunk_extern", i32 1}
!4 = !{i32 4, !"indirect_branch_cs_prefix", i32 1}
!5 = !{i32 4, !"SkipRaxSetup", i32 1}
!6 = !{!"branch_weights", i32 1, i32 2000}
!7 = !{i64 2149606426, i64 2149606459, i64 2149606465, i64 2149606481, i64 2149606500, i64 2149606531, i64 2149607484, i64 2149606073, i64 2149607490, i64 2149607538, i64 2149607602, i64 2149607666, i64 2149607723, i64 2149607930, i64 2149607978, i64 2149608042, i64 2149608106, i64 2149608163, i64 2149606191, i64 2149606216, i64 2149608373, i64 2149608501, i64 2149608434, i64 2149608515, i64 2149608529, i64 2149608645, i64 2149608590, i64 2149608659, i64 2149606350, i64 1157251, i64 1157291, i64 1157300, i64 1157350, i64 1157371, i64 1157391}
!8 = !{!"branch_weights", i32 2000, i32 1}
!9 = !{i64 2148191325}
!10 = !{i64 2150438974}
!11 = !{i64 2150439756}
!12 = !{i64 2148195681, i64 2148195774}
!13 = !{i64 2150439938}
!14 = !{i64 2148526170, i64 2148526244}
